target datalayout = "e-m:e-p270:32:32-p271:32:32-p272:64:64-i64:64-i128:128-f80:128-n8:16:32:64-S128"
target triple = "x86_64-pc-linux-gnu"

@.str.3 = private unnamed_addr constant [2 x i8] c",\00", align 1
@.str.48 = private unnamed_addr constant [1 x i8] zeroinitializer, align 1
@.str.61 = private unnamed_addr constant [4 x i8] c"a2a\00", align 1
@.str.63 = private unnamed_addr constant [5 x i8] c"hemi\00", align 1
@.str.65 = private unnamed_addr constant [5 x i8] c"quad\00", align 1
@.str.67 = private unnamed_addr constant [5 x i8] c"snc2\00", align 1
@.str.69 = private unnamed_addr constant [5 x i8] c"snc4\00", align 1
@.str.72 = private unnamed_addr constant [5 x i8] c"%s%s\00", align 1

; Function Attrs: nounwind uwtable
define internal zeroext i16 @_knl_numa_token(ptr noundef %0) #0 {
  %2 = alloca ptr, align 8
  %3 = alloca i16, align 2
  store ptr %0, ptr %2, align 8
  call void @llvm.lifetime.start.p0(i64 2, ptr %3) #9
  store i16 0, ptr %3, align 2
  %4 = load ptr, ptr %2, align 8
  %5 = call i32 @xstrcasecmp(ptr noundef %4, ptr noundef @.str.61)
  %6 = icmp ne i32 %5, 0
  br i1 %6, label %12, label %7

7:                                                ; preds = %1
  %8 = load i16, ptr %3, align 2
  %9 = zext i16 %8 to i32
  %10 = or i32 %9, 1
  %11 = trunc i32 %10 to i16
  store i16 %11, ptr %3, align 2
  br label %52

12:                                               ; preds = %1
  %13 = load ptr, ptr %2, align 8
  %14 = call i32 @xstrcasecmp(ptr noundef %13, ptr noundef @.str.67)
  %15 = icmp ne i32 %14, 0
  br i1 %15, label %21, label %16

16:                                               ; preds = %12
  %17 = load i16, ptr %3, align 2
  %18 = zext i16 %17 to i32
  %19 = or i32 %18, 2
  %20 = trunc i32 %19 to i16
  store i16 %20, ptr %3, align 2
  br label %51

21:                                               ; preds = %12
  %22 = load ptr, ptr %2, align 8
  %23 = call i32 @xstrcasecmp(ptr noundef %22, ptr noundef @.str.69)
  %24 = icmp ne i32 %23, 0
  br i1 %24, label %30, label %25

25:                                               ; preds = %21
  %26 = load i16, ptr %3, align 2
  %27 = zext i16 %26 to i32
  %28 = or i32 %27, 4
  %29 = trunc i32 %28 to i16
  store i16 %29, ptr %3, align 2
  br label %50

30:                                               ; preds = %21
  %31 = load ptr, ptr %2, align 8
  %32 = call i32 @xstrcasecmp(ptr noundef %31, ptr noundef @.str.63)
  %33 = icmp ne i32 %32, 0
  br i1 %33, label %39, label %34

34:                                               ; preds = %30
  %35 = load i16, ptr %3, align 2
  %36 = zext i16 %35 to i32
  %37 = or i32 %36, 8
  %38 = trunc i32 %37 to i16
  store i16 %38, ptr %3, align 2
  br label %49

39:                                               ; preds = %30
  %40 = load ptr, ptr %2, align 8
  %41 = call i32 @xstrcasecmp(ptr noundef %40, ptr noundef @.str.65)
  %42 = icmp ne i32 %41, 0
  br i1 %42, label %48, label %43

43:                                               ; preds = %39
  %44 = load i16, ptr %3, align 2
  %45 = zext i16 %44 to i32
  %46 = or i32 %45, 16
  %47 = trunc i32 %46 to i16
  store i16 %47, ptr %3, align 2
  br label %48

48:                                               ; preds = %43, %39
  br label %49

49:                                               ; preds = %48, %34
  br label %50

50:                                               ; preds = %49, %25
  br label %51

51:                                               ; preds = %50, %16
  br label %52

52:                                               ; preds = %51, %7
  %53 = load i16, ptr %3, align 2
  call void @llvm.lifetime.end.p0(i64 2, ptr %3) #9
  ret i16 %53
}

; Function Attrs: nounwind uwtable
define dso_local ptr @node_features_p_node_xlate2(ptr noundef %0) #0 {
  %2 = alloca ptr, align 8
  %3 = alloca ptr, align 8
  %4 = alloca ptr, align 8
  %5 = alloca ptr, align 8
  %6 = alloca ptr, align 8
  %7 = alloca ptr, align 8
  %8 = alloca i16, align 2
  %9 = alloca i16, align 2
  %10 = alloca i16, align 2
  %11 = alloca i16, align 2
  store ptr %0, ptr %2, align 8
  call void @llvm.lifetime.start.p0(i64 8, ptr %3) #9
  store ptr null, ptr %3, align 8
  call void @llvm.lifetime.start.p0(i64 8, ptr %4) #9
  call void @llvm.lifetime.start.p0(i64 8, ptr %5) #9
  store ptr null, ptr %5, align 8
  call void @llvm.lifetime.start.p0(i64 8, ptr %6) #9
  store ptr @.str.48, ptr %6, align 8
  call void @llvm.lifetime.start.p0(i64 8, ptr %7) #9
  call void @llvm.lifetime.start.p0(i64 2, ptr %8) #9
  store i16 0, ptr %8, align 2
  call void @llvm.lifetime.start.p0(i64 2, ptr %9) #9
  store i16 0, ptr %9, align 2
  call void @llvm.lifetime.start.p0(i64 2, ptr %10) #9
  call void @llvm.lifetime.start.p0(i64 2, ptr %11) #9
  %12 = load ptr, ptr %2, align 8
  %13 = icmp ne ptr %12, null
  br i1 %13, label %14, label %72

14:                                               ; preds = %1
  %15 = load ptr, ptr %2, align 8
  %16 = load i8, ptr %15, align 1
  %17 = sext i8 %16 to i32
  %18 = icmp ne i32 %17, 0
  br i1 %18, label %19, label %72

19:                                               ; preds = %14
  %20 = load ptr, ptr %2, align 8
  %21 = call ptr @xstrdup(ptr noundef %20)
  store ptr %21, ptr %4, align 8
  %22 = load ptr, ptr %4, align 8
  %23 = call ptr @strtok_r(ptr noundef %22, ptr noundef @.str.3, ptr noundef %5) #9
  store ptr %23, ptr %7, align 8
  br label %24

24:                                               ; preds = %53, %19
  %25 = load ptr, ptr %7, align 8
  %26 = icmp ne ptr %25, null
  br i1 %26, label %27, label %55

27:                                               ; preds = %24
  %28 = load ptr, ptr %7, align 8
  %29 = call zeroext i16 @_knl_mcdram_token(ptr noundef %28)
  store i16 %29, ptr %10, align 2
  %30 = icmp ne i16 %29, 0
  br i1 %30, label %31, label %38

31:                                               ; preds = %27
  %32 = load i16, ptr %10, align 2
  %33 = zext i16 %32 to i32
  %34 = load i16, ptr %8, align 2
  %35 = zext i16 %34 to i32
  %36 = or i32 %35, %33
  %37 = trunc i32 %36 to i16
  store i16 %37, ptr %8, align 2
  br label %53

38:                                               ; preds = %27
  %39 = load ptr, ptr %7, align 8
  %40 = call zeroext i16 @_knl_numa_token(ptr noundef %39)
  store i16 %40, ptr %11, align 2
  %41 = icmp ne i16 %40, 0
  br i1 %41, label %42, label %49

42:                                               ; preds = %38
  %43 = load i16, ptr %11, align 2
  %44 = zext i16 %43 to i32
  %45 = load i16, ptr %9, align 2
  %46 = zext i16 %45 to i32
  %47 = or i32 %46, %44
  %48 = trunc i32 %47 to i16
  store i16 %48, ptr %9, align 2
  br label %52

49:                                               ; preds = %38
  %50 = load ptr, ptr %6, align 8
  %51 = load ptr, ptr %7, align 8
  call void (ptr, ptr, ...) @_xstrfmtcat(ptr noundef %3, ptr noundef @.str.72, ptr noundef %50, ptr noundef %51)
  store ptr @.str.3, ptr %6, align 8
  br label %52

52:                                               ; preds = %49, %42
  br label %53

53:                                               ; preds = %52, %31
  %54 = call ptr @strtok_r(ptr noundef null, ptr noundef @.str.3, ptr noundef %5) #9
  store ptr %54, ptr %7, align 8
  br label %24, !llvm.loop !49

55:                                               ; preds = %24
  call void @slurm_xfree(ptr noundef %4)
  %56 = load i16, ptr %8, align 2
  %57 = icmp ne i16 %56, 0
  br i1 %57, label %58, label %63

58:                                               ; preds = %55
  %59 = load i16, ptr %8, align 2
  %60 = call ptr @_knl_mcdram_str(i16 noundef zeroext %59)
  store ptr %60, ptr %4, align 8
  %61 = load ptr, ptr %6, align 8
  %62 = load ptr, ptr %4, align 8
  call void (ptr, ptr, ...) @_xstrfmtcat(ptr noundef %3, ptr noundef @.str.72, ptr noundef %61, ptr noundef %62)
  call void @slurm_xfree(ptr noundef %4)
  store ptr @.str.3, ptr %6, align 8
  br label %63

63:                                               ; preds = %58, %55
  %64 = load i16, ptr %9, align 2
  %65 = icmp ne i16 %64, 0
  br i1 %65, label %66, label %71

66:                                               ; preds = %63
  %67 = load i16, ptr %9, align 2
  %68 = call ptr @_knl_numa_str(i16 noundef zeroext %67)
  store ptr %68, ptr %4, align 8
  %69 = load ptr, ptr %6, align 8
  %70 = load ptr, ptr %4, align 8
  call void (ptr, ptr, ...) @_xstrfmtcat(ptr noundef %3, ptr noundef @.str.72, ptr noundef %69, ptr noundef %70)
  call void @slurm_xfree(ptr noundef %4)
  br label %71

71:                                               ; preds = %66, %63
  br label %72

72:                                               ; preds = %71, %14, %1
  %73 = load ptr, ptr %3, align 8
  call void @llvm.lifetime.end.p0(i64 2, ptr %11) #9
  call void @llvm.lifetime.end.p0(i64 2, ptr %10) #9
  call void @llvm.lifetime.end.p0(i64 2, ptr %9) #9
  call void @llvm.lifetime.end.p0(i64 2, ptr %8) #9
  call void @llvm.lifetime.end.p0(i64 8, ptr %7) #9
  call void @llvm.lifetime.end.p0(i64 8, ptr %6) #9
  call void @llvm.lifetime.end.p0(i64 8, ptr %5) #9
  call void @llvm.lifetime.end.p0(i64 8, ptr %4) #9
  call void @llvm.lifetime.end.p0(i64 8, ptr %3) #9
  ret ptr %73
}