; Function Attrs: nounwind uwtable
define dso_local ptr @node_features_p_node_xlate2(ptr noundef %0) local_unnamed_addr #0 {
  %2 = alloca ptr, align 8
  %3 = alloca ptr, align 8
  %4 = alloca ptr, align 8
  call void @llvm.lifetime.start.p0(i64 8, ptr nonnull %2) #14
  store ptr null, ptr %2, align 8
  call void @llvm.lifetime.start.p0(i64 8, ptr nonnull %3) #14
  call void @llvm.lifetime.start.p0(i64 8, ptr nonnull %4) #14
  store ptr null, ptr %4, align 8
  %.not = icmp eq ptr %0, null
  br i1 %.not, label %31, label %5

5:                                                ; preds = %1
  %6 = load i8, ptr %0, align 1
  %.not25 = icmp eq i8 %6, 0
  br i1 %.not25, label %31, label %7

7:                                                ; preds = %5
  %8 = tail call ptr @xstrdup(ptr noundef nonnull %0) #14
  store ptr %8, ptr %3, align 8
  %9 = call ptr @strtok_r(ptr noundef %8, ptr noundef nonnull @.str.3, ptr noundef nonnull %4) #14
  %.not2634 = icmp eq ptr %9, null
  br i1 %.not2634, label %.sink.split, label %.lr.ph

.lr.ph:                                           ; preds = %7, %24
  %.038 = phi ptr [ %.1, %24 ], [ @.str.48, %7 ]
  %.01737 = phi ptr [ %25, %24 ], [ %9, %7 ]
  %.01836 = phi i16 [ %.119, %24 ], [ 0, %7 ]
  %.02035 = phi i16 [ %.121, %24 ], [ 0, %7 ]
  %10 = call fastcc zeroext i16 @_knl_mcdram_token(ptr noundef nonnull %.01737)
  %.not29 = icmp eq i16 %10, 0
  br i1 %.not29, label %13, label %11

11:                                               ; preds = %.lr.ph
  %12 = or i16 %10, %.02035
  br label %24

13:                                               ; preds = %.lr.ph
  %14 = call i32 @xstrcasecmp(ptr noundef nonnull %.01737, ptr noundef nonnull @.str.61) #14
  %.not.i = icmp eq i32 %14, 0
  br i1 %.not.i, label %select.unfold, label %15

15:                                               ; preds = %13
  %16 = call i32 @xstrcasecmp(ptr noundef nonnull %.01737, ptr noundef nonnull @.str.67) #14
  %.not10.i = icmp eq i32 %16, 0
  br i1 %.not10.i, label %select.unfold, label %17

17:                                               ; preds = %15
  %18 = call i32 @xstrcasecmp(ptr noundef nonnull %.01737, ptr noundef nonnull @.str.69) #14
  %.not11.i = icmp eq i32 %18, 0
  br i1 %.not11.i, label %select.unfold, label %19

19:                                               ; preds = %17
  %20 = call i32 @xstrcasecmp(ptr noundef nonnull %.01737, ptr noundef nonnull @.str.63) #14
  %.not12.i = icmp eq i32 %20, 0
  br i1 %.not12.i, label %select.unfold, label %21

21:                                               ; preds = %19
  %22 = call i32 @xstrcasecmp(ptr noundef nonnull %.01737, ptr noundef nonnull @.str.65) #14
  %.not13.i = icmp eq i32 %22, 0
  br i1 %.not13.i, label %select.unfold, label %_knl_numa_token.exit

select.unfold:                                    ; preds = %21, %13, %15, %17, %19
  %.0.i.ph = phi i16 [ 8, %19 ], [ 4, %17 ], [ 2, %15 ], [ 1, %13 ], [ 16, %21 ]
  %23 = or i16 %.0.i.ph, %.01836
  br label %24

_knl_numa_token.exit:                             ; preds = %21
  call void (ptr, ptr, ...) @_xstrfmtcat(ptr noundef nonnull %2, ptr noundef nonnull @.str.72, ptr noundef %.038, ptr noundef nonnull %.01737) #14
  br label %24

24:                                               ; preds = %select.unfold, %_knl_numa_token.exit, %11
  %.121 = phi i16 [ %12, %11 ], [ %.02035, %select.unfold ], [ %.02035, %_knl_numa_token.exit ]
  %.119 = phi i16 [ %.01836, %11 ], [ %23, %select.unfold ], [ %.01836, %_knl_numa_token.exit ]
  %.1 = phi ptr [ %.038, %11 ], [ %.038, %select.unfold ], [ @.str.3, %_knl_numa_token.exit ]
  %25 = call ptr @strtok_r(ptr noundef null, ptr noundef nonnull @.str.3, ptr noundef nonnull %4) #14
  %.not26 = icmp eq ptr %25, null
  br i1 %.not26, label %._crit_edge, label %.lr.ph, !llvm.loop !45

._crit_edge:                                      ; preds = %24
  call void @slurm_xfree(ptr noundef nonnull %3) #14
  %.not27 = icmp eq i16 %.121, 0
  br i1 %.not27, label %28, label %26

26:                                               ; preds = %._crit_edge
  %27 = call fastcc ptr @_knl_mcdram_str(i16 noundef zeroext %.121)
  store ptr %27, ptr %3, align 8
  call void (ptr, ptr, ...) @_xstrfmtcat(ptr noundef nonnull %2, ptr noundef nonnull @.str.72, ptr noundef %.1, ptr noundef %27) #14
  call void @slurm_xfree(ptr noundef nonnull %3) #14
  br label %28

28:                                               ; preds = %26, %._crit_edge
  %.2 = phi ptr [ @.str.3, %26 ], [ %.1, %._crit_edge ]
  %.not28 = icmp eq i16 %.119, 0
  br i1 %.not28, label %31, label %29

29:                                               ; preds = %28
  %30 = call fastcc ptr @_knl_numa_str(i16 noundef zeroext %.119)
  store ptr %30, ptr %3, align 8
  call void (ptr, ptr, ...) @_xstrfmtcat(ptr noundef nonnull %2, ptr noundef nonnull @.str.72, ptr noundef %.2, ptr noundef %30) #14
  br label %.sink.split

.sink.split:                                      ; preds = %7, %29
  call void @slurm_xfree(ptr noundef nonnull %3) #14
  br label %31

31:                                               ; preds = %.sink.split, %28, %5, %1
  %32 = load ptr, ptr %2, align 8
  call void @llvm.lifetime.end.p0(i64 8, ptr nonnull %4) #14
  call void @llvm.lifetime.end.p0(i64 8, ptr nonnull %3) #14
  call void @llvm.lifetime.end.p0(i64 8, ptr nonnull %2) #14
  ret ptr %32
}